; Function Attrs: null_pointer_is_valid sspstrong uwtable
define internal fastcc i32 @resp_ldf_get_node_signals(ptr noundef %0, ptr noundef %1) unnamed_addr #0 {
  %3 = alloca i32, align 4
  call void @llvm.lifetime.start.p0(i64 4, ptr nonnull %3) #5
  %4 = tail call zeroext i16 @tvb_get_ntohs(ptr noundef %0, i32 noundef 16)
  %5 = load i32, ptr @hf_gryphon_ldf_num_signal_names, align 4
  %6 = tail call ptr @proto_tree_add_item(ptr noundef %1, i32 noundef %5, ptr noundef %0, i32 noundef 16, i32 noundef 2, i32 noundef 0)
  %.not14 = icmp eq i16 %4, 0
  br i1 %.not14, label %._crit_edge, label %.lr.ph

.lr.ph:                                           ; preds = %2, %.lr.ph
  %.016 = phi i16 [ %11, %.lr.ph ], [ %4, %2 ]
  %.01215 = phi i32 [ %10, %.lr.ph ], [ 18, %2 ]
  %7 = load i32, ptr @hf_gryphon_ldf_signal_name, align 4
  %8 = call ptr @proto_tree_add_item_ret_length(ptr noundef %1, i32 noundef %7, ptr noundef %0, i32 noundef %.01215, i32 noundef -1, i32 noundef 0, ptr noundef nonnull %3)
  %9 = load i32, ptr %3, align 4
  %10 = add i32 %9, %.01215
  %11 = add i16 %.016, -1
  %.not = icmp eq i16 %11, 0
  br i1 %.not, label %._crit_edge, label %.lr.ph, !llvm.loop !34

._crit_edge:                                      ; preds = %.lr.ph, %2
  %.012.lcssa = phi i32 [ 18, %2 ], [ %10, %.lr.ph ]
  call void @llvm.lifetime.end.p0(i64 4, ptr nonnull %3) #5
  ret i32 %.012.lcssa
}